target datalayout = "e-m:e-p270:32:32-p271:32:32-p272:64:64-i64:64-i128:128-f80:128-n8:16:32:64-S128"
target triple = "x86_64-pc-linux-gnu"

%struct.parse = type { ptr, ptr, i32, ptr, i64, i64, i32, ptr, [10 x i64], [10 x i64] }

@nuls = internal global [10 x i8] zeroinitializer, align 1

; Function Attrs: nounwind uwtable
define internal i32 @enlarge(ptr noundef %0, i64 noundef %1) #0 {
  %3 = alloca i32, align 4
  %4 = alloca ptr, align 8
  %5 = alloca i64, align 8
  %6 = alloca ptr, align 8
  store ptr %0, ptr %4, align 8
  store i64 %1, ptr %5, align 8
  %7 = load ptr, ptr %4, align 8
  %8 = getelementptr inbounds %struct.parse, ptr %7, i32 0, i32 4
  %9 = load i64, ptr %8, align 8
  %10 = load i64, ptr %5, align 8
  %11 = icmp sge i64 %9, %10
  br i1 %11, label %12, label %13

12:                                               ; preds = %2
  store i32 1, ptr %3, align 4
  br label %31

13:                                               ; preds = %2
  %14 = load ptr, ptr %4, align 8
  %15 = getelementptr inbounds %struct.parse, ptr %14, i32 0, i32 3
  %16 = load ptr, ptr %15, align 8
  %17 = load i64, ptr %5, align 8
  %18 = mul i64 %17, 8
  %19 = call ptr @cli_max_realloc(ptr noundef %16, i64 noundef %18)
  store ptr %19, ptr %6, align 8
  %20 = load ptr, ptr %6, align 8
  %21 = icmp eq ptr %20, null
  br i1 %21, label %22, label %24

22:                                               ; preds = %13
  %23 = load ptr, ptr %4, align 8
  call void @seterr(ptr noundef %23, i32 noundef 12)
  store i32 0, ptr %3, align 4
  br label %31

24:                                               ; preds = %13
  %25 = load ptr, ptr %6, align 8
  %26 = load ptr, ptr %4, align 8
  %27 = getelementptr inbounds %struct.parse, ptr %26, i32 0, i32 3
  store ptr %25, ptr %27, align 8
  %28 = load i64, ptr %5, align 8
  %29 = load ptr, ptr %4, align 8
  %30 = getelementptr inbounds %struct.parse, ptr %29, i32 0, i32 4
  store i64 %28, ptr %30, align 8
  store i32 1, ptr %3, align 4
  br label %31

31:                                               ; preds = %24, %22, %12
  %32 = load i32, ptr %3, align 4
  ret i32 %32
}

; Function Attrs: nounwind uwtable
define internal void @seterr(ptr noundef %0, i32 noundef %1) #0 {
  %3 = alloca ptr, align 8
  %4 = alloca i32, align 4
  store ptr %0, ptr %3, align 8
  store i32 %1, ptr %4, align 4
  %5 = load ptr, ptr %3, align 8
  %6 = getelementptr inbounds %struct.parse, ptr %5, i32 0, i32 2
  %7 = load i32, ptr %6, align 8
  %8 = icmp eq i32 %7, 0
  br i1 %8, label %9, label %13

9:                                                ; preds = %2
  %10 = load i32, ptr %4, align 4
  %11 = load ptr, ptr %3, align 8
  %12 = getelementptr inbounds %struct.parse, ptr %11, i32 0, i32 2
  store i32 %10, ptr %12, align 8
  br label %13

13:                                               ; preds = %9, %2
  %14 = load ptr, ptr %3, align 8
  %15 = getelementptr inbounds %struct.parse, ptr %14, i32 0, i32 0
  store ptr @nuls, ptr %15, align 8
  %16 = load ptr, ptr %3, align 8
  %17 = getelementptr inbounds %struct.parse, ptr %16, i32 0, i32 1
  store ptr @nuls, ptr %17, align 8
  ret void
}

; Function Attrs: nounwind uwtable
define internal void @doemit(ptr noundef %0, i64 noundef %1, i64 noundef %2) #0 {
  %4 = alloca ptr, align 8
  %5 = alloca i64, align 8
  %6 = alloca i64, align 8
  store ptr %0, ptr %4, align 8
  store i64 %1, ptr %5, align 8
  store i64 %2, ptr %6, align 8
  %7 = load ptr, ptr %4, align 8
  %8 = getelementptr inbounds %struct.parse, ptr %7, i32 0, i32 2
  %9 = load i32, ptr %8, align 8
  %10 = icmp ne i32 %9, 0
  br i1 %10, label %11, label %12

11:                                               ; preds = %3
  br label %44

12:                                               ; preds = %3
  %13 = load ptr, ptr %4, align 8
  %14 = getelementptr inbounds %struct.parse, ptr %13, i32 0, i32 5
  %15 = load i64, ptr %14, align 8
  %16 = load ptr, ptr %4, align 8
  %17 = getelementptr inbounds %struct.parse, ptr %16, i32 0, i32 4
  %18 = load i64, ptr %17, align 8
  %19 = icmp sge i64 %15, %18
  br i1 %19, label %20, label %32

20:                                               ; preds = %12
  %21 = load ptr, ptr %4, align 8
  %22 = load ptr, ptr %4, align 8
  %23 = getelementptr inbounds %struct.parse, ptr %22, i32 0, i32 4
  %24 = load i64, ptr %23, align 8
  %25 = add nsw i64 %24, 1
  %26 = sdiv i64 %25, 2
  %27 = mul nsw i64 %26, 3
  %28 = call i32 @enlarge(ptr noundef %21, i64 noundef %27)
  %29 = icmp ne i32 %28, 0
  br i1 %29, label %31, label %30

30:                                               ; preds = %20
  br label %44

31:                                               ; preds = %20
  br label %32

32:                                               ; preds = %31, %12
  %33 = load i64, ptr %5, align 8
  %34 = load i64, ptr %6, align 8
  %35 = or i64 %33, %34
  %36 = load ptr, ptr %4, align 8
  %37 = getelementptr inbounds %struct.parse, ptr %36, i32 0, i32 3
  %38 = load ptr, ptr %37, align 8
  %39 = load ptr, ptr %4, align 8
  %40 = getelementptr inbounds %struct.parse, ptr %39, i32 0, i32 5
  %41 = load i64, ptr %40, align 8
  %42 = add nsw i64 %41, 1
  store i64 %42, ptr %40, align 8
  %43 = getelementptr inbounds i64, ptr %38, i64 %41
  store i64 %35, ptr %43, align 8
  br label %44

44:                                               ; preds = %32, %30, %11
  ret void
}

; Function Attrs: nounwind uwtable
define internal void @doinsert(ptr noundef %0, i64 noundef %1, i64 noundef %2, i64 noundef %3) #0 {
  %5 = alloca ptr, align 8
  %6 = alloca i64, align 8
  %7 = alloca i64, align 8
  %8 = alloca i64, align 8
  %9 = alloca i64, align 8
  %10 = alloca i64, align 8
  %11 = alloca i32, align 4
  store ptr %0, ptr %5, align 8
  store i64 %1, ptr %6, align 8
  store i64 %2, ptr %7, align 8
  store i64 %3, ptr %8, align 8
  %12 = load ptr, ptr %5, align 8
  %13 = getelementptr inbounds %struct.parse, ptr %12, i32 0, i32 2
  %14 = load i32, ptr %13, align 8
  %15 = icmp ne i32 %14, 0
  br i1 %15, label %16, label %17

16:                                               ; preds = %4
  br label %105

17:                                               ; preds = %4
  %18 = load ptr, ptr %5, align 8
  %19 = getelementptr inbounds %struct.parse, ptr %18, i32 0, i32 5
  %20 = load i64, ptr %19, align 8
  store i64 %20, ptr %9, align 8
  %21 = load ptr, ptr %5, align 8
  %22 = load i64, ptr %6, align 8
  %23 = load i64, ptr %7, align 8
  call void @doemit(ptr noundef %21, i64 noundef %22, i64 noundef %23)
  %24 = load ptr, ptr %5, align 8
  %25 = getelementptr inbounds %struct.parse, ptr %24, i32 0, i32 5
  %26 = load i64, ptr %25, align 8
  %27 = load i64, ptr %9, align 8
  %28 = add nsw i64 %27, 1
  %29 = icmp ne i64 %26, %28
  br i1 %29, label %30, label %32

30:                                               ; preds = %17
  %31 = load ptr, ptr %5, align 8
  call void @seterr(ptr noundef %31, i32 noundef 15)
  br label %105

32:                                               ; preds = %17
  %33 = load ptr, ptr %5, align 8
  %34 = getelementptr inbounds %struct.parse, ptr %33, i32 0, i32 3
  %35 = load ptr, ptr %34, align 8
  %36 = load i64, ptr %9, align 8
  %37 = getelementptr inbounds i64, ptr %35, i64 %36
  %38 = load i64, ptr %37, align 8
  store i64 %38, ptr %10, align 8
  store i32 1, ptr %11, align 4
  br label %39

39:                                               ; preds = %77, %32
  %40 = load i32, ptr %11, align 4
  %41 = icmp slt i32 %40, 10
  br i1 %41, label %42, label %80

42:                                               ; preds = %39
  %43 = load ptr, ptr %5, align 8
  %44 = getelementptr inbounds %struct.parse, ptr %43, i32 0, i32 8
  %45 = load i32, ptr %11, align 4
  %46 = sext i32 %45 to i64
  %47 = getelementptr inbounds [10 x i64], ptr %44, i64 0, i64 %46
  %48 = load i64, ptr %47, align 8
  %49 = load i64, ptr %8, align 8
  %50 = icmp sge i64 %48, %49
  br i1 %50, label %51, label %59

51:                                               ; preds = %42
  %52 = load ptr, ptr %5, align 8
  %53 = getelementptr inbounds %struct.parse, ptr %52, i32 0, i32 8
  %54 = load i32, ptr %11, align 4
  %55 = sext i32 %54 to i64
  %56 = getelementptr inbounds [10 x i64], ptr %53, i64 0, i64 %55
  %57 = load i64, ptr %56, align 8
  %58 = add nsw i64 %57, 1
  store i64 %58, ptr %56, align 8
  br label %59

59:                                               ; preds = %51, %42
  %60 = load ptr, ptr %5, align 8
  %61 = getelementptr inbounds %struct.parse, ptr %60, i32 0, i32 9
  %62 = load i32, ptr %11, align 4
  %63 = sext i32 %62 to i64
  %64 = getelementptr inbounds [10 x i64], ptr %61, i64 0, i64 %63
  %65 = load i64, ptr %64, align 8
  %66 = load i64, ptr %8, align 8
  %67 = icmp sge i64 %65, %66
  br i1 %67, label %68, label %76

68:                                               ; preds = %59
  %69 = load ptr, ptr %5, align 8
  %70 = getelementptr inbounds %struct.parse, ptr %69, i32 0, i32 9
  %71 = load i32, ptr %11, align 4
  %72 = sext i32 %71 to i64
  %73 = getelementptr inbounds [10 x i64], ptr %70, i64 0, i64 %72
  %74 = load i64, ptr %73, align 8
  %75 = add nsw i64 %74, 1
  store i64 %75, ptr %73, align 8
  br label %76

76:                                               ; preds = %68, %59
  br label %77

77:                                               ; preds = %76
  %78 = load i32, ptr %11, align 4
  %79 = add nsw i32 %78, 1
  store i32 %79, ptr %11, align 4
  br label %39

80:                                               ; preds = %39
  %81 = load ptr, ptr %5, align 8
  %82 = getelementptr inbounds %struct.parse, ptr %81, i32 0, i32 3
  %83 = load ptr, ptr %82, align 8
  %84 = load i64, ptr %8, align 8
  %85 = add nsw i64 %84, 1
  %86 = getelementptr inbounds i64, ptr %83, i64 %85
  %87 = load ptr, ptr %5, align 8
  %88 = getelementptr inbounds %struct.parse, ptr %87, i32 0, i32 3
  %89 = load ptr, ptr %88, align 8
  %90 = load i64, ptr %8, align 8
  %91 = getelementptr inbounds i64, ptr %89, i64 %90
  %92 = load ptr, ptr %5, align 8
  %93 = getelementptr inbounds %struct.parse, ptr %92, i32 0, i32 5
  %94 = load i64, ptr %93, align 8
  %95 = load i64, ptr %8, align 8
  %96 = sub nsw i64 %94, %95
  %97 = sub nsw i64 %96, 1
  %98 = mul i64 %97, 8
  call void @llvm.memmove.p0.p0.i64(ptr align 1 %86, ptr align 1 %91, i64 %98, i1 false)
  %99 = load i64, ptr %10, align 8
  %100 = load ptr, ptr %5, align 8
  %101 = getelementptr inbounds %struct.parse, ptr %100, i32 0, i32 3
  %102 = load ptr, ptr %101, align 8
  %103 = load i64, ptr %8, align 8
  %104 = getelementptr inbounds i64, ptr %102, i64 %103
  store i64 %99, ptr %104, align 8
  br label %105

105:                                              ; preds = %80, %30, %16
  ret void
}