; Function Attrs: nounwind uwtable
define internal fastcc void @doinsert(ptr nocapture noundef %0, i64 noundef %1, i64 noundef %2, i64 noundef %3) unnamed_addr #0 {
  %5 = getelementptr inbounds i8, ptr %0, i64 16
  %6 = load i32, ptr %5, align 8
  %.not = icmp eq i32 %6, 0
  br i1 %.not, label %7, label %67

7:                                                ; preds = %4
  %8 = getelementptr inbounds i8, ptr %0, i64 40
  %9 = load i64, ptr %8, align 8
  %10 = getelementptr inbounds i8, ptr %0, i64 32
  %11 = load i64, ptr %10, align 8
  %.not8.i = icmp slt i64 %9, %11
  br i1 %.not8.i, label %enlarge.exit.thread.i, label %12

12:                                               ; preds = %7
  %13 = add nsw i64 %11, 1
  %14 = sdiv i64 %13, 2
  %15 = mul nsw i64 %14, 3
  %.not.i.i = icmp slt i64 %11, %15
  br i1 %.not.i.i, label %16, label %enlarge.exit.thread.i

16:                                               ; preds = %12
  %17 = getelementptr inbounds i8, ptr %0, i64 24
  %18 = load ptr, ptr %17, align 8
  %19 = mul i64 %14, 24
  %20 = tail call ptr @cli_max_realloc(ptr noundef %18, i64 noundef %19) #12
  %21 = icmp eq ptr %20, null
  br i1 %21, label %22, label %26

22:                                               ; preds = %16
  %23 = load i32, ptr %5, align 8
  %24 = icmp eq i32 %23, 0
  br i1 %24, label %25, label %enlarge.exit.i

25:                                               ; preds = %22
  store i32 12, ptr %5, align 8
  br label %enlarge.exit.i

26:                                               ; preds = %16
  store ptr %20, ptr %17, align 8
  store i64 %15, ptr %10, align 8
  %.pre.i = load i64, ptr %8, align 8
  br label %enlarge.exit.thread.i

enlarge.exit.i:                                   ; preds = %25, %22
  store ptr @nuls, ptr %0, align 8
  %27 = getelementptr inbounds i8, ptr %0, i64 8
  store ptr @nuls, ptr %27, align 8
  br label %doemit.exit

enlarge.exit.thread.i:                            ; preds = %26, %12, %7
  %28 = phi i64 [ %9, %12 ], [ %.pre.i, %26 ], [ %9, %7 ]
  %29 = or i64 %2, %1
  %30 = getelementptr inbounds i8, ptr %0, i64 24
  %31 = load ptr, ptr %30, align 8
  %32 = add nsw i64 %28, 1
  store i64 %32, ptr %8, align 8
  %33 = getelementptr inbounds i64, ptr %31, i64 %28
  store i64 %29, ptr %33, align 8
  br label %doemit.exit

doemit.exit:                                      ; preds = %enlarge.exit.i, %enlarge.exit.thread.i
  %34 = load i64, ptr %8, align 8
  %35 = add nsw i64 %9, 1
  %.not32 = icmp eq i64 %34, %35
  br i1 %.not32, label %41, label %36

36:                                               ; preds = %doemit.exit
  %37 = load i32, ptr %5, align 8
  %38 = icmp eq i32 %37, 0
  br i1 %38, label %39, label %seterr.exit

39:                                               ; preds = %36
  store i32 15, ptr %5, align 8
  br label %seterr.exit

seterr.exit:                                      ; preds = %36, %39
  store ptr @nuls, ptr %0, align 8
  %40 = getelementptr inbounds i8, ptr %0, i64 8
  store ptr @nuls, ptr %40, align 8
  br label %67

41:                                               ; preds = %doemit.exit
  %42 = getelementptr inbounds i8, ptr %0, i64 24
  %43 = load ptr, ptr %42, align 8
  %44 = getelementptr inbounds i64, ptr %43, i64 %9
  %45 = load i64, ptr %44, align 8
  %46 = getelementptr inbounds i8, ptr %0, i64 64
  %47 = getelementptr inbounds i8, ptr %0, i64 144
  br label %48

48:                                               ; preds = %41, %58
  %indvars.iv = phi i64 [ 1, %41 ], [ %indvars.iv.next, %58 ]
  %49 = getelementptr inbounds [10 x i64], ptr %46, i64 0, i64 %indvars.iv
  %50 = load i64, ptr %49, align 8
  %.not33 = icmp slt i64 %50, %3
  br i1 %.not33, label %53, label %51

51:                                               ; preds = %48
  %52 = add nsw i64 %50, 1
  store i64 %52, ptr %49, align 8
  br label %53

53:                                               ; preds = %51, %48
  %54 = getelementptr inbounds [10 x i64], ptr %47, i64 0, i64 %indvars.iv
  %55 = load i64, ptr %54, align 8
  %.not34 = icmp slt i64 %55, %3
  br i1 %.not34, label %58, label %56

56:                                               ; preds = %53
  %57 = add nsw i64 %55, 1
  store i64 %57, ptr %54, align 8
  br label %58

58:                                               ; preds = %53, %56
  %indvars.iv.next = add nuw nsw i64 %indvars.iv, 1
  %exitcond.not = icmp eq i64 %indvars.iv.next, 10
  br i1 %exitcond.not, label %59, label %48

59:                                               ; preds = %58
  %60 = getelementptr i64, ptr %43, i64 %3
  %61 = getelementptr i8, ptr %60, i64 8
  %62 = xor i64 %3, -1
  %63 = add i64 %34, %62
  %64 = shl i64 %63, 3
  tail call void @llvm.memmove.p0.p0.i64(ptr align 1 %61, ptr align 1 %60, i64 %64, i1 false)
  %65 = load ptr, ptr %42, align 8
  %66 = getelementptr inbounds i64, ptr %65, i64 %3
  store i64 %45, ptr %66, align 8
  br label %67

67:                                               ; preds = %4, %59, %seterr.exit
  ret void
}